; Function Attrs: nounwind uwtable
define dso_local void @XLogRegisterBlock(i8 noundef zeroext %0, ptr noundef readonly captures(none) %1, i32 noundef %2, i32 noundef %3, ptr noundef %4, i8 noundef zeroext %5) local_unnamed_addr #0 {
  %7 = zext i8 %0 to i32
  %8 = load i32, ptr @max_registered_block_id, align 4
  %.not = icmp sgt i32 %8, %7
  br i1 %.not, label %11, label %9

9:                                                ; preds = %6
  %10 = add nuw nsw i32 %7, 1
  store i32 %10, ptr @max_registered_block_id, align 4
  br label %11

11:                                               ; preds = %9, %6
  %12 = load i32, ptr @max_registered_buffers, align 4
  %.not17 = icmp sgt i32 %12, %7
  br i1 %.not17, label %16, label %13

13:                                               ; preds = %11
  %14 = tail call zeroext i1 @errstart_cold(i32 noundef 21, ptr noundef null) #11
  tail call void @llvm.assume(i1 %14)
  %15 = tail call i32 (ptr, ...) @errmsg_internal(ptr noundef nonnull @.str.4) #10
  tail call void @errfinish(ptr noundef nonnull @.str.1, i32 noundef 320, ptr noundef nonnull @__func__.XLogRegisterBlock) #10
  unreachable

16:                                               ; preds = %11
  %17 = load ptr, ptr @registered_buffers, align 8
  %18 = zext i8 %0 to i64
  %19 = getelementptr inbounds nuw %struct.registered_buffer, ptr %17, i64 %18
  %20 = getelementptr inbounds nuw i8, ptr %19, i64 4
  tail call void @llvm.memcpy.p0.p0.i64(ptr noundef nonnull align 4 dereferenceable(12) %20, ptr noundef nonnull align 4 dereferenceable(12) %1, i64 12, i1 false)
  %21 = getelementptr inbounds nuw i8, ptr %19, i64 16
  store i32 %2, ptr %21, align 8
  %22 = getelementptr inbounds nuw i8, ptr %19, i64 20
  store i32 %3, ptr %22, align 4
  %23 = getelementptr inbounds nuw i8, ptr %19, i64 24
  store ptr %4, ptr %23, align 8
  %24 = getelementptr inbounds nuw i8, ptr %19, i64 1
  store i8 %5, ptr %24, align 1
  %25 = getelementptr inbounds nuw i8, ptr %19, i64 40
  %26 = getelementptr inbounds nuw i8, ptr %19, i64 48
  store ptr %25, ptr %26, align 8
  %27 = getelementptr inbounds nuw i8, ptr %19, i64 32
  store i32 0, ptr %27, align 8
  store i8 1, ptr %19, align 8
  ret void
}